target datalayout = "e-m:e-p270:32:32-p271:32:32-p272:64:64-i64:64-i128:128-f80:128-n8:16:32:64-S128"
target triple = "x86_64-pc-linux-gnu"

@.str.49 = private unnamed_addr constant [2 x i8] c"U\00", align 1
@PyExc_OSError = external global ptr, align 8
@.str.57 = private unnamed_addr constant [41 x i8] c"maximum number of symbolic links reached\00", align 1

; Function Attrs: nounwind uwtable
define internal ptr @getpath_realpath(ptr noundef %0, ptr noundef %1) #0 {
  %3 = alloca ptr, align 8
  %4 = alloca ptr, align 8
  %5 = alloca ptr, align 8
  %6 = alloca ptr, align 8
  %7 = alloca i32, align 4
  %8 = alloca ptr, align 8
  %9 = alloca i32, align 4
  %10 = alloca ptr, align 8
  %11 = alloca ptr, align 8
  %12 = alloca [4097 x i32], align 16
  %13 = alloca i32, align 4
  %14 = alloca ptr, align 8
  store ptr %0, ptr %4, align 8, !tbaa !16
  store ptr %1, ptr %5, align 8, !tbaa !16
  call void @llvm.lifetime.start.p0(i64 8, ptr %6) #10
  %15 = load ptr, ptr %5, align 8, !tbaa !16
  %16 = call i32 (ptr, ptr, ...) @PyArg_ParseTuple(ptr noundef %15, ptr noundef @.str.49, ptr noundef %6)
  %17 = icmp ne i32 %16, 0
  br i1 %17, label %19, label %18

18:                                               ; preds = %2
  store ptr null, ptr %3, align 8
  store i32 1, ptr %7, align 4
  br label %89

19:                                               ; preds = %2
  call void @llvm.lifetime.start.p0(i64 8, ptr %8) #10
  store ptr null, ptr %8, align 8, !tbaa !16
  call void @llvm.lifetime.start.p0(i64 4, ptr %9) #10
  store i32 0, ptr %9, align 4, !tbaa !9
  call void @llvm.lifetime.start.p0(i64 8, ptr %10) #10
  %20 = load ptr, ptr %6, align 8, !tbaa !16
  %21 = call ptr @PyUnicode_AsWideCharString(ptr noundef %20, ptr noundef null)
  store ptr %21, ptr %10, align 8, !tbaa !29
  %22 = load ptr, ptr %10, align 8, !tbaa !29
  %23 = icmp ne ptr %22, null
  br i1 %23, label %25, label %24

24:                                               ; preds = %19
  br label %86

25:                                               ; preds = %19
  %26 = load ptr, ptr %10, align 8, !tbaa !29
  %27 = call ptr @_PyMem_RawWcsdup(ptr noundef %26)
  store ptr %27, ptr %11, align 8, !tbaa !29
  %28 = load ptr, ptr %10, align 8, !tbaa !29
  call void @PyMem_Free(ptr noundef %28)
  %29 = load ptr, ptr %11, align 8, !tbaa !29
  store ptr %29, ptr %10, align 8, !tbaa !29
  br label %30

30:                                               ; preds = %79, %25
  %31 = load ptr, ptr %10, align 8, !tbaa !29
  %32 = icmp ne ptr %31, null
  br i1 %32, label %33, label %80

33:                                               ; preds = %30
  call void @llvm.lifetime.start.p0(i64 16388, ptr %12) #10
  call void @llvm.lifetime.start.p0(i64 4, ptr %13) #10
  %34 = load ptr, ptr %10, align 8, !tbaa !29
  %35 = getelementptr inbounds [4097 x i32], ptr %12, i64 0, i64 0
  %36 = call i32 @_Py_wreadlink(ptr noundef %34, ptr noundef %35, i64 noundef 4097)
  store i32 %36, ptr %13, align 4, !tbaa !9
  %37 = load i32, ptr %13, align 4, !tbaa !9
  %38 = icmp eq i32 %37, -1
  br i1 %38, label %39, label %42

39:                                               ; preds = %33
  %40 = load ptr, ptr %10, align 8, !tbaa !29
  %41 = call ptr @PyUnicode_FromWideChar(ptr noundef %40, i64 noundef -1)
  store ptr %41, ptr %8, align 8, !tbaa !16
  store i32 4, ptr %7, align 4
  br label %77

42:                                               ; preds = %33
  %43 = getelementptr inbounds [4097 x i32], ptr %12, i64 0, i64 0
  %44 = call i32 @_Py_isabs(ptr noundef %43)
  %45 = icmp ne i32 %44, 0
  br i1 %45, label %46, label %50

46:                                               ; preds = %42
  %47 = load ptr, ptr %10, align 8, !tbaa !29
  call void @PyMem_RawFree(ptr noundef %47)
  %48 = getelementptr inbounds [4097 x i32], ptr %12, i64 0, i64 0
  %49 = call ptr @_PyMem_RawWcsdup(ptr noundef %48)
  store ptr %49, ptr %10, align 8, !tbaa !29
  br label %69

50:                                               ; preds = %42
  call void @llvm.lifetime.start.p0(i64 8, ptr %14) #10
  %51 = load ptr, ptr %10, align 8, !tbaa !29
  %52 = call ptr @wcsrchr(ptr noundef %51, i32 noundef 47) #11
  store ptr %52, ptr %14, align 8, !tbaa !29
  %53 = load ptr, ptr %14, align 8, !tbaa !29
  %54 = icmp ne ptr %53, null
  br i1 %54, label %55, label %57

55:                                               ; preds = %50
  %56 = load ptr, ptr %14, align 8, !tbaa !29
  store i32 0, ptr %56, align 4, !tbaa !9
  br label %57

57:                                               ; preds = %55, %50
  %58 = load ptr, ptr %10, align 8, !tbaa !29
  %59 = getelementptr inbounds [4097 x i32], ptr %12, i64 0, i64 0
  %60 = call ptr @_Py_join_relfile(ptr noundef %58, ptr noundef %59)
  store ptr %60, ptr %11, align 8, !tbaa !29
  %61 = load ptr, ptr %11, align 8, !tbaa !29
  %62 = icmp ne ptr %61, null
  br i1 %62, label %63, label %66

63:                                               ; preds = %57
  %64 = load ptr, ptr %11, align 8, !tbaa !29
  %65 = call ptr @_Py_normpath(ptr noundef %64, i64 noundef -1)
  store ptr %65, ptr %11, align 8, !tbaa !29
  br label %66

66:                                               ; preds = %63, %57
  %67 = load ptr, ptr %10, align 8, !tbaa !29
  call void @PyMem_RawFree(ptr noundef %67)
  %68 = load ptr, ptr %11, align 8, !tbaa !29
  store ptr %68, ptr %10, align 8, !tbaa !29
  call void @llvm.lifetime.end.p0(i64 8, ptr %14) #10
  br label %69

69:                                               ; preds = %66, %46
  %70 = load i32, ptr %9, align 4, !tbaa !9
  %71 = add i32 %70, 1
  store i32 %71, ptr %9, align 4, !tbaa !9
  %72 = load i32, ptr %9, align 4, !tbaa !9
  %73 = icmp sge i32 %72, 40
  br i1 %73, label %74, label %76

74:                                               ; preds = %69
  %75 = load ptr, ptr @PyExc_OSError, align 8, !tbaa !16
  call void @PyErr_SetString(ptr noundef %75, ptr noundef @.str.57)
  store i32 4, ptr %7, align 4
  br label %77

76:                                               ; preds = %69
  store i32 0, ptr %7, align 4
  br label %77

77:                                               ; preds = %76, %74, %39
  call void @llvm.lifetime.end.p0(i64 4, ptr %13) #10
  call void @llvm.lifetime.end.p0(i64 16388, ptr %12) #10
  %78 = load i32, ptr %7, align 4
  switch i32 %78, label %91 [
    i32 0, label %79
    i32 4, label %80
  ]

79:                                               ; preds = %77
  br label %30, !llvm.loop !52

80:                                               ; preds = %77, %30
  %81 = load ptr, ptr %10, align 8, !tbaa !29
  %82 = icmp ne ptr %81, null
  br i1 %82, label %85, label %83

83:                                               ; preds = %80
  %84 = call ptr @PyErr_NoMemory()
  br label %85

85:                                               ; preds = %83, %80
  br label %86

86:                                               ; preds = %85, %24
  %87 = load ptr, ptr %10, align 8, !tbaa !29
  call void @PyMem_RawFree(ptr noundef %87)
  %88 = load ptr, ptr %8, align 8, !tbaa !16
  store ptr %88, ptr %3, align 8
  store i32 1, ptr %7, align 4
  call void @llvm.lifetime.end.p0(i64 8, ptr %10) #10
  call void @llvm.lifetime.end.p0(i64 4, ptr %9) #10
  call void @llvm.lifetime.end.p0(i64 8, ptr %8) #10
  br label %89

89:                                               ; preds = %86, %18
  call void @llvm.lifetime.end.p0(i64 8, ptr %6) #10
  %90 = load ptr, ptr %3, align 8
  ret ptr %90

91:                                               ; preds = %77
  unreachable
}