; Function Attrs: nounwind uwtable
define internal ptr @getpath_realpath(ptr readnone captures(none) %0, ptr noundef %1) #0 {
  %3 = alloca ptr, align 8
  %4 = alloca [4097 x i32], align 16
  call void @llvm.lifetime.start.p0(i64 8, ptr nonnull %3) #13
  %5 = call i32 (ptr, ptr, ...) @PyArg_ParseTuple(ptr noundef %1, ptr noundef nonnull @.str.49, ptr noundef nonnull %3) #13
  %.not = icmp eq i32 %5, 0
  br i1 %.not, label %33, label %6

6:                                                ; preds = %2
  %7 = load ptr, ptr %3, align 8, !tbaa !31
  %8 = call ptr @PyUnicode_AsWideCharString(ptr noundef %7, ptr noundef null) #13
  %.not40 = icmp eq ptr %8, null
  br i1 %.not40, label %32, label %9

9:                                                ; preds = %6
  %10 = call ptr @_PyMem_RawWcsdup(ptr noundef nonnull %8) #13
  call void @PyMem_Free(ptr noundef nonnull %8) #13
  %.not4162 = icmp eq ptr %10, null
  br i1 %.not4162, label %.thread51, label %.lr.ph

.lr.ph:                                           ; preds = %9, %27
  %.164 = phi ptr [ %.4, %27 ], [ %10, %9 ]
  %.02763 = phi i32 [ %28, %27 ], [ 0, %9 ]
  call void @llvm.lifetime.start.p0(i64 16388, ptr nonnull %4) #13
  %11 = call i32 @_Py_wreadlink(ptr noundef nonnull %.164, ptr noundef nonnull %4, i64 noundef 4097) #13
  %12 = icmp eq i32 %11, -1
  br i1 %12, label %.thread56, label %14

.thread56:                                        ; preds = %.lr.ph
  %13 = call ptr @PyUnicode_FromWideChar(ptr noundef nonnull %.164, i64 noundef -1) #13
  call void @llvm.lifetime.end.p0(i64 16388, ptr nonnull %4) #13
  br label %32

14:                                               ; preds = %.lr.ph
  %15 = call i32 @_Py_isabs(ptr noundef nonnull %4) #13
  %.not42 = icmp eq i32 %15, 0
  br i1 %.not42, label %18, label %16

16:                                               ; preds = %14
  call void @PyMem_RawFree(ptr noundef nonnull %.164) #13
  %17 = call ptr @_PyMem_RawWcsdup(ptr noundef nonnull %4) #13
  br label %26

18:                                               ; preds = %14
  %19 = call ptr @wcsrchr(ptr noundef nonnull %.164, i32 noundef 47) #14
  %.not43 = icmp eq ptr %19, null
  br i1 %.not43, label %21, label %20

20:                                               ; preds = %18
  store i32 0, ptr %19, align 4, !tbaa !12
  br label %21

21:                                               ; preds = %20, %18
  %22 = call ptr @_Py_join_relfile(ptr noundef nonnull %.164, ptr noundef nonnull %4) #13
  %.not44 = icmp eq ptr %22, null
  br i1 %.not44, label %25, label %23

23:                                               ; preds = %21
  %24 = call ptr @_Py_normpath(ptr noundef nonnull %22, i64 noundef -1) #13
  br label %25

25:                                               ; preds = %23, %21
  %.025 = phi ptr [ %24, %23 ], [ null, %21 ]
  call void @PyMem_RawFree(ptr noundef nonnull %.164) #13
  br label %26

26:                                               ; preds = %25, %16
  %.4 = phi ptr [ %17, %16 ], [ %.025, %25 ]
  %exitcond = icmp eq i32 %.02763, 39
  br i1 %exitcond, label %29, label %27

27:                                               ; preds = %26
  %28 = add nuw nsw i32 %.02763, 1
  call void @llvm.lifetime.end.p0(i64 16388, ptr nonnull %4) #13
  %.not41 = icmp eq ptr %.4, null
  br i1 %.not41, label %.thread51, label %.lr.ph

29:                                               ; preds = %26
  %30 = load ptr, ptr @PyExc_OSError, align 8, !tbaa !31
  call void @PyErr_SetString(ptr noundef %30, ptr noundef nonnull @.str.57) #13
  call void @llvm.lifetime.end.p0(i64 16388, ptr nonnull %4) #13
  %.not45 = icmp eq ptr %.4, null
  br i1 %.not45, label %.thread51, label %32

.thread51:                                        ; preds = %27, %9, %29
  %31 = call ptr @PyErr_NoMemory() #13
  br label %32

32:                                               ; preds = %.thread56, %29, %.thread51, %6
  %.029 = phi ptr [ null, %29 ], [ null, %.thread51 ], [ null, %6 ], [ %13, %.thread56 ]
  %.026 = phi ptr [ %.4, %29 ], [ null, %.thread51 ], [ null, %6 ], [ %.164, %.thread56 ]
  call void @PyMem_RawFree(ptr noundef %.026) #13
  br label %33

33:                                               ; preds = %2, %32
  %.0 = phi ptr [ %.029, %32 ], [ null, %2 ]
  call void @llvm.lifetime.end.p0(i64 8, ptr nonnull %3) #13
  ret ptr %.0
}